; Function Attrs: nounwind uwtable
define noalias noundef ptr @Gia_ManTransfer(ptr noundef readonly captures(none) %0, ptr noundef readonly captures(none) %1, ptr readnone captures(none) %2, ptr noundef readonly captures(none) %3) local_unnamed_addr #0 {
  %5 = tail call noalias dereferenceable_or_null(16) ptr @malloc(i64 noundef 16) #26
  %6 = getelementptr inbounds nuw i8, ptr %5, i64 4
  store i32 0, ptr %6, align 4, !tbaa !30
  store i32 100, ptr %5, align 8, !tbaa !31
  %7 = tail call noalias dereferenceable_or_null(400) ptr @malloc(i64 noundef 400) #26
  %8 = getelementptr inbounds nuw i8, ptr %5, i64 8
  store ptr %7, ptr %8, align 8, !tbaa !32
  %9 = getelementptr i8, ptr %0, i64 32
  %10 = getelementptr i8, ptr %3, i64 4
  %.val19 = load i32, ptr %10, align 4, !tbaa !30
  %11 = icmp sgt i32 %.val19, 0
  br i1 %11, label %.lr.ph, label %.critedge

.lr.ph:                                           ; preds = %4
  %12 = getelementptr i8, ptr %3, i64 8
  %13 = getelementptr i8, ptr %1, i64 32
  br label %14

14:                                               ; preds = %.lr.ph, %Vec_IntPushUnique.exit
  %.val26 = phi i32 [ %.val19, %.lr.ph ], [ %.val, %Vec_IntPushUnique.exit ]
  %15 = phi ptr [ %7, %.lr.ph ], [ %.pre.i.i24, %Vec_IntPushUnique.exit ]
  %16 = phi ptr [ %7, %.lr.ph ], [ %56, %Vec_IntPushUnique.exit ]
  %indvars.iv = phi i64 [ 0, %.lr.ph ], [ %indvars.iv.next, %Vec_IntPushUnique.exit ]
  %.val17 = load ptr, ptr %9, align 8, !tbaa !40
  %.not = icmp eq ptr %.val17, null
  br i1 %.not, label %.critedge, label %17

17:                                               ; preds = %14
  %.val18 = load ptr, ptr %12, align 8, !tbaa !32
  %18 = getelementptr inbounds nuw i32, ptr %.val18, i64 %indvars.iv
  %19 = load i32, ptr %18, align 4, !tbaa !43
  %20 = sext i32 %19 to i64
  %21 = getelementptr inbounds %struct.Gia_Obj_t_, ptr %.val17, i64 %20, i32 1
  %22 = load i32, ptr %21, align 4, !tbaa !41
  %23 = ashr i32 %22, 1
  %.val16 = load ptr, ptr %13, align 8, !tbaa !40
  %24 = sext i32 %23 to i64
  %25 = getelementptr inbounds %struct.Gia_Obj_t_, ptr %.val16, i64 %24, i32 1
  %26 = load i32, ptr %25, align 4, !tbaa !41
  switch i32 %26, label %27 [
    i32 0, label %Vec_IntPushUnique.exit
    i32 -1, label %Vec_IntPushUnique.exit
  ]

27:                                               ; preds = %17
  %28 = ashr i32 %26, 1
  %29 = load i32, ptr %6, align 4, !tbaa !30
  %30 = icmp sgt i32 %29, 0
  br i1 %30, label %.lr.ph.i, label %._crit_edge.i

.lr.ph.i:                                         ; preds = %27
  %wide.trip.count.i = zext nneg i32 %29 to i64
  br label %32

31:                                               ; preds = %32
  %indvars.iv.next.i = add nuw nsw i64 %indvars.iv.i, 1
  %exitcond.not.i = icmp eq i64 %indvars.iv.next.i, %wide.trip.count.i
  br i1 %exitcond.not.i, label %._crit_edge.i, label %32, !llvm.loop !101

32:                                               ; preds = %31, %.lr.ph.i
  %indvars.iv.i = phi i64 [ 0, %.lr.ph.i ], [ %indvars.iv.next.i, %31 ]
  %33 = getelementptr inbounds nuw i32, ptr %16, i64 %indvars.iv.i
  %34 = load i32, ptr %33, align 4, !tbaa !43
  %35 = icmp eq i32 %34, %28
  br i1 %35, label %Vec_IntPushUnique.exit, label %31

._crit_edge.i:                                    ; preds = %31, %27
  %36 = load i32, ptr %5, align 8, !tbaa !31
  %37 = icmp eq i32 %29, %36
  br i1 %37, label %38, label %Vec_IntPush.exit.i

38:                                               ; preds = %._crit_edge.i
  %39 = icmp slt i32 %29, 16
  br i1 %39, label %40, label %45

40:                                               ; preds = %38
  %.not9.i.i.i = icmp eq ptr %15, null
  br i1 %.not9.i.i.i, label %43, label %41

41:                                               ; preds = %40
  %42 = tail call dereferenceable_or_null(64) ptr @realloc(ptr noundef nonnull %15, i64 noundef 64) #28
  br label %Vec_IntPush.exit.i.sink.split

43:                                               ; preds = %40
  %44 = tail call noalias dereferenceable_or_null(64) ptr @malloc(i64 noundef 64) #26
  br label %Vec_IntPush.exit.i.sink.split

45:                                               ; preds = %38
  %46 = shl nuw nsw i32 %29, 1
  %.not9.i9.i.i = icmp eq ptr %15, null
  %47 = zext nneg i32 %46 to i64
  %48 = shl nuw nsw i64 %47, 2
  br i1 %.not9.i9.i.i, label %51, label %49

49:                                               ; preds = %45
  %50 = tail call ptr @realloc(ptr noundef nonnull %15, i64 noundef %48) #28
  br label %Vec_IntPush.exit.i.sink.split

51:                                               ; preds = %45
  %52 = tail call noalias ptr @malloc(i64 noundef %48) #26
  br label %Vec_IntPush.exit.i.sink.split

Vec_IntPush.exit.i.sink.split:                    ; preds = %49, %51, %41, %43
  %.sink28 = phi ptr [ %42, %41 ], [ %44, %43 ], [ %50, %49 ], [ %52, %51 ]
  %.sink = phi i32 [ 16, %41 ], [ 16, %43 ], [ %46, %49 ], [ %46, %51 ]
  store ptr %.sink28, ptr %8, align 8, !tbaa !32
  store i32 %.sink, ptr %5, align 8, !tbaa !31
  br label %Vec_IntPush.exit.i

Vec_IntPush.exit.i:                               ; preds = %Vec_IntPush.exit.i.sink.split, %._crit_edge.i
  %.pre.i.i25 = phi ptr [ %15, %._crit_edge.i ], [ %.sink28, %Vec_IntPush.exit.i.sink.split ]
  %53 = add nsw i32 %29, 1
  store i32 %53, ptr %6, align 4, !tbaa !30
  %54 = sext i32 %29 to i64
  %55 = getelementptr inbounds i32, ptr %.pre.i.i25, i64 %54
  store i32 %28, ptr %55, align 4, !tbaa !43
  %.val.pre = load i32, ptr %10, align 4, !tbaa !30
  br label %Vec_IntPushUnique.exit

Vec_IntPushUnique.exit:                           ; preds = %32, %Vec_IntPush.exit.i, %17, %17
  %.val = phi i32 [ %.val.pre, %Vec_IntPush.exit.i ], [ %.val26, %17 ], [ %.val26, %17 ], [ %.val26, %32 ]
  %.pre.i.i24 = phi ptr [ %.pre.i.i25, %Vec_IntPush.exit.i ], [ %15, %17 ], [ %15, %17 ], [ %15, %32 ]
  %56 = phi ptr [ %.pre.i.i25, %Vec_IntPush.exit.i ], [ %16, %17 ], [ %16, %17 ], [ %16, %32 ]
  %indvars.iv.next = add nuw nsw i64 %indvars.iv, 1
  %57 = sext i32 %.val to i64
  %58 = icmp slt i64 %indvars.iv.next, %57
  br i1 %58, label %14, label %.critedge, !llvm.loop !102

.critedge:                                        ; preds = %14, %Vec_IntPushUnique.exit, %4
  ret ptr %5
}